; Function Attrs: mustprogress nofree norecurse nosync nounwind willreturn memory(argmem: write) uwtable
define dso_local void @XML_SetNamespaceDeclHandler(ptr noundef writeonly %0, ptr noundef %1, ptr noundef %2) local_unnamed_addr #2 {
  %4 = icmp eq ptr %0, null
  br i1 %4, label %8, label %5

5:                                                ; preds = %3
  %6 = getelementptr inbounds nuw i8, ptr %0, i64 216
  store ptr %1, ptr %6, align 8, !tbaa !121
  %7 = getelementptr inbounds nuw i8, ptr %0, i64 224
  store ptr %2, ptr %7, align 8, !tbaa !122
  br label %8

8:                                                ; preds = %3, %5
  ret void
}